; Function Attrs: mustprogress uwtable
define hidden noundef zeroext i1 @_ZN4cvc58internal6theory2ff8isFfTermERKNS0_12NodeTemplateILb1EEE(ptr noundef nonnull align 8 dereferenceable(8) %0) local_unnamed_addr #3 personality ptr @__gxx_personality_v0 {
  %2 = alloca %"class.cvc5::internal::TypeNode", align 8
  call void @llvm.lifetime.start.p0(i64 8, ptr nonnull %2) #19
  call void @_ZNK4cvc58internal12NodeTemplateILb1EE7getTypeEb(ptr dead_on_unwind nonnull writable sret(%"class.cvc5::internal::TypeNode") align 8 %2, ptr noundef nonnull align 8 dereferenceable(8) %0, i1 noundef zeroext false)
  %3 = load ptr, ptr %2, align 8, !tbaa !16
  %4 = getelementptr inbounds nuw i8, ptr %3, i64 8
  %5 = load i64, ptr %4, align 8
  %6 = load i64, ptr %3, align 8
  %7 = and i64 %6, 1152920405095219200
  %.not.i.i = icmp eq i64 %7, 1152920405095219200
  br i1 %.not.i.i, label %_ZN4cvc58internal8TypeNodeD2Ev.exit, label %8, !prof !15

8:                                                ; preds = %1
  %9 = add i64 %6, 1152920405095219200
  %10 = and i64 %9, 1152920405095219200
  %11 = and i64 %6, -1152920405095219201
  %12 = or disjoint i64 %10, %11
  store i64 %12, ptr %3, align 8
  %13 = icmp eq i64 %10, 0
  br i1 %13, label %14, label %_ZN4cvc58internal8TypeNodeD2Ev.exit, !prof !15

14:                                               ; preds = %8
  invoke void @_ZN4cvc58internal4expr9NodeValue15markForDeletionEv(ptr noundef nonnull align 8 dereferenceable(24) %3)
          to label %_ZN4cvc58internal8TypeNodeD2Ev.exit unwind label %15

15:                                               ; preds = %14
  %16 = landingpad { ptr, i32 }
          catch ptr null
  %17 = extractvalue { ptr, i32 } %16, 0
  call void @__clang_call_terminate(ptr %17) #20
  unreachable

_ZN4cvc58internal8TypeNodeD2Ev.exit:              ; preds = %1, %8, %14
  %18 = and i64 %5, 1023
  %19 = icmp eq i64 %18, 151
  call void @llvm.lifetime.end.p0(i64 8, ptr nonnull %2) #19
  ret i1 %19
}